; Function Attrs: nounwind uwtable
define range(i32 0, 2) i32 @lv_image_cache_init(i32 noundef %0) local_unnamed_addr #0 {
  %2 = alloca %struct._lv_cache_ops_t, align 8
  %3 = load ptr, ptr getelementptr inbounds nuw (i8, ptr @lv_global, i64 520), align 8, !tbaa !3
  %.not = icmp eq ptr %3, null
  br i1 %.not, label %4, label %11

4:                                                ; preds = %1
  %5 = zext i32 %0 to i64
  store ptr @image_cache_compare_cb, ptr %2, align 8, !tbaa !30
  %6 = getelementptr inbounds nuw i8, ptr %2, i64 8
  store ptr null, ptr %6, align 8, !tbaa !32
  %7 = getelementptr inbounds nuw i8, ptr %2, i64 16
  store ptr @image_cache_free_cb, ptr %7, align 8, !tbaa !33
  %8 = tail call ptr @lv_cache_create(ptr noundef nonnull @lv_cache_class_lru_rb_size, i64 noundef 48, i64 noundef %5, ptr noundef nonnull byval(%struct._lv_cache_ops_t) align 8 %2) #4
  store ptr %8, ptr getelementptr inbounds nuw (i8, ptr @lv_global, i64 520), align 8, !tbaa !3
  tail call void @lv_cache_set_name(ptr noundef %8, ptr noundef nonnull @.str) #4
  %9 = load ptr, ptr getelementptr inbounds nuw (i8, ptr @lv_global, i64 520), align 8, !tbaa !3
  %.not2 = icmp ne ptr %9, null
  %10 = zext i1 %.not2 to i32
  br label %11

11:                                               ; preds = %1, %4
  %.0 = phi i32 [ %10, %4 ], [ 1, %1 ]
  ret i32 %.0
}